(dp1
S'fork'
p2
(lp3
S'yokes'
p4
aS'range'
p5
aS'pitchfork'
p6
aS'yoke'
p7
aS'hairpins'
p8
aS'forks'
p9
aS'clevis'
p10
aVfork
p11
asS'pencil'
p12
(lp13
S'ball-point'
p14
aS'crayons'
p15
aS'pencils'
p16
aS'sketching'
p17
aS'stylus'
p18
aS'ink'
p19
aS'highlighter'
p20
aS'felt-tip'
p21
aS'crayon'
p22
aS'pens'
p23
aS'sharpie'
p24
aS'inking'
p25
aS'sharpener'
p26
aS'gouache'
p27
aS'feather'
p28
aS'eyeshadow'
p29
aS'watercolour'
p30
aS'paintbrush'
p31
aS'eyeliner'
p32
aS'quill'
p33
aS'felt-tipped'
p34
aS'pen'
p35
aVpencil
p36
asS'cigarette'
p37
(lp38
S'smoking'
p39
aS'nicotine'
p40
aS'smokes'
p41
aS'smoker'
p42
aS'fag'
p43
aS'smokeless'
p44
aS'fags'
p45
aS'hookah'
p46
aS'anti-smoking'
p47
aS'homo'
p48
aS'cigarettes'
p49
aS'e-cigarette'
p50
aS'ciggarette'
p51
aS'non-smokers'
p52
aS'puffing'
p53
aS'e-cigarettes'
p54
aS'non-smoker'
p55
aS'smokefree'
p56
aS'smoke-free'
p57
aS'smokers'
p58
aS'tabac'
p59
aS'ciggie'
p60
aS'anti-tobacco'
p61
aS'shisha'
p62
aS'tobacco-free'
p63
aS'smoky'
p64
aS'smoke'
p65
aS'e-cig'
p66
aS'tobacco'
p67
aS'e-cigs'
p68
aS'smoked'
p69
aS'cigarrette'
p70
aS'quitting'
p71
aS'fumer'
p72
aS'no-smoking'
p73
aS'vaping'
p74
aS'fume'
p75
aS'cig'
p76
aS'cigaret'
p77
aS'cigs'
p78
aS'ecig'
p79
aVcigarette
p80
aVcigaret
p81
aVcoffin_nail
p82
aVbutt
p83
aVfag
p84
asS'hamburger'
p85
(lp86
S'meatloaf'
p87
aS'joes'
p88
aS'sandwich'
p89
aS'burger'
p90
aS'cheeseburgers'
p91
aS'falafel'
p92
aS'burritos'
p93
aS'doughnuts'
p94
aS'hotdogs'
p95
aS'steak'
p96
aS'sandwiches'
p97
aS'fast-food'
p98
aS'arby'
p99
aS'mcdonalds'
p100
aS'burgers'
p101
aS'donut'
p102
aS'nachos'
p103
aS'cheeseburger'
p104
aS'burrito'
p105
aS'patties'
p106
aS'whopper'
p107
aS'hotdog'
p108
aS'hoagie'
p109
aS'cheesesteak'
p110
aS'in-n-out'
p111
aS'donuts'
p112
aS'mincemeat'
p113
aS'hamburgers'
p114
aS'bagel'
p115
aVhamburger
p116
aVbeefburger
p117
aVburger
p118
asS'clock'
p119
(lp120
S'roughy'
p121
aS'hour'
p122
aS'countdown'
p123
aS'clocking'
p124
aS'timekeeping'
p125
aS'clocks'
p126
aS'stopwatch'
p127
aS'timepiece'
p128
aS'watches'
p129
aS'timer'
p130
aS'timed'
p131
aS'pendulum'
p132
aVclock
p133
asS'trashcan'
p134
(lp135
S'trashcans'
p136
aS'outhouse'
p137
aS'trash'
p138
aS'wastebasket'
p139
aS'trashbag'
p140
aS'dustbin'
p141
aS'vandalize'
p142
aS'trashbin'
p143
aS'dumpster'
p144
aS'wastebaskets'
p145
aS'trash-can'
p146
aS'wastepaper'
p147
aS'bedpan'
p148
aS'dustbins'
p149
asS'button'
p150
(lp151
S'knobs'
p152
aS'buttons'
p153
aS'button.'
p154
aS'buton'
p155
aS'switch'
p156
aS'bouton'
p157
aS'pushbutton'
p158
aS'pimples'
p159
aS'knob'
p160
aS'poppers'
p161
aS'pimple'
p162
aS'zit'
p163
aS'on/off'
p164
aS'swtich'
p165
aS'buttom'
p166
aVbutton
p167
asS'purse'
p168
(lp169
S'pouches'
p170
aS'bags'
p171
aS'backpack'
p172
aS'sandbags'
p173
aS'portfolios'
p174
aS'pocket'
p175
aS'purses'
p176
aS'satchel'
p177
aS'tote'
p178
aS'briefcase'
p179
aS'bookbag'
p180
aS'sac'
p181
aS'pouch'
p182
aS'bolsa'
p183
aS'sacks'
p184
aS'seine'
p185
aS'suitcase'
p186
aS'baggage'
p187
aS'handbags'
p188
aS'luggage'
p189
aS'saddlebag'
p190
aS'handbag'
p191
aS'schoolbags'
p192
aS'sachet'
p193
aS'rucksack'
p194
aS'bag'
p195
aS'pocketbook'
p196
aS'pockets'
p197
aS'valise'
p198
aS'baggies'
p199
aS'wallet'
p200
aS'wallets'
p201
aS'suitcases'
p202
aS'sachets'
p203
aS'saddlebags'
p204
aS'sack'
p205
aS'sacs'
p206
aS'knapsack'
p207
aS'pack'
p208
aVbag
p209
aVhandbag
p210
aVpocketbook
p211
aVpurse
p212
asS'coffee'
p213
(lp214
S'caf\xc3\xa9'
p215
aS'barista'
p216
aS'decaf'
p217
aS'coffee-producing'
p218
aS'mocha'
p219
aS'cappuccinos'
p220
aS'latte'
p221
aS'espresso'
p222
aS'starbuck'
p223
aS'pubs'
p224
aS'cafeteria'
p225
aS'coffe'
p226
aS'caf\xc3\xa9s'
p227
aS'diner'
p228
aS'cappuccino'
p229
aS'starbucks'
p230
aS'caffe'
p231
aS'cappucino'
p232
aS'coffeehouse'
p233
aS'restaurant'
p234
aS'coffees'
p235
aS'cafe'
p236
aS'cafes'
p237
aS'cybercafes'
p238
aVcoffee
p239
aVjava
p240
asS'wallet'
p241
(lp242
g170
ag171
ag172
ag174
ag175
aS'checkbook'
p243
ag176
aS'holding'
p244
ag177
aS'portfolio'
p245
ag179
ag182
aS'pocket-sized'
p246
aS'handhelds'
p247
ag186
ag187
ag188
ag189
ag191
ag193
ag194
ag195
aS'purse'
p248
ag196
ag197
ag198
ag199
ag201
aS'pocketbooks'
p249
aS'billfold'
p250
ag207
aVwallet
p251
aVbillfold
p252
aVnotecase
p253
aVpocketbook
p254
asS'cell phone'
p255
NsS'camera'
p256
(lp257
S'chambers'
p258
aS'bedroom'
p259
aS'chambre'
p260
aS'cams'
p261
aS'apparatus'
p262
aS'salas'
p263
aS'camcorder'
p264
aS'house'
p265
aS'chamber'
p266
aS'courtrooms'
p267
aS'device'
p268
aS'cameras'
p269
aS'rooms'
p270
aVcamera
p271
aVphotographic_camera
p272
asS'eraser'
p273
(lp274
S'erasers'
p275
aS'pasteboard'
p276
aS'draft'
p277
aS'gum'
p278
aS'gums'
p279
aVeraser
p280
asS'mirror'
p281
(lp282
S'reflection'
p283
aS'bcv'
p284
aS'duplicate'
p285
aS'mirrored'
p286
aS'rearview'
p287
aS'spiegel'
p288
aS'mirroring'
p289
aS'mirrors'
p290
aS'reflect'
p291
aS'reflecting'
p292
aS'reflector'
p293
aS'glace'
p294
aVmirror
p295
asS'newspaper'
p296
(lp297
S'newsletter'
p298
aS'mainichi'
p299
aS'pillion'
p300
aS'gazettes'
p301
aS'newpaper'
p302
aS'journalistic'
p303
aS'journals'
p304
aS'official'
p305
aS'newsprint'
p306
aS'press'
p307
aS'officiel'
p308
aS'daily'
p309
aS'gazzetta'
p310
aS'papers'
p311
aS'periodic'
p312
aS'diaries'
p313
aS'monitorul'
p314
aS'newspapers'
p315
aS'jornal'
p316
aS'revues'
p317
aS'broadsheet'
p318
aS'revista'
p319
aS'news'
p320
aS'diary'
p321
aS'stampa'
p322
aS'presse'
p323
aS'tournai'
p324
aS'dailies'
p325
aS'gazette'
p326
aS'journal'
p327
aS'gaceta'
p328
aS'papiers'
p329
aS'periodicals'
p330
aS'journalists'
p331
aS'paper'
p332
aS'bulletin'
p333
aS'journaux'
p334
aS'ilbo'
p335
aS'journalism'
p336
aS'al-akhbar'
p337
aS'prensa'
p338
aS'magazine'
p339
aS'diario'
p340
aVnewspaper
p341
aVpaper
p342
asS'scissors'
p343
(lp344
S'exacto'
p345
aS'knife'
p346
aS'knives'
p347
aS'snips'
p348
aS'pliers'
p349
aS'snipping'
p350
aS'scalpels'
p351
aS'tweezers'
p352
aS'shears'
p353
aS'handsaw'
p354
aS'sissors'
p355
ag26
aS'knifes'
p356
aS'daggers'
p357
aS'cutters'
p358
aS'paring'
p359
aS'cuts'
p360
aS'sharpeners'
p361
aS'screwdrivers'
p362
aS'nippers'
p363
aS'hacksaw'
p364
aS'pruners'
p365
aS'scalpel'
p366
aS'screwdriver'
p367
aS'chisels'
p368
aS'sharpening'
p369
aS'secateurs'
p370
aS'pinking'
p371
aVscissors
p372
aVpair_of_scissors
p373
asS'calendar'
p374
(lp375
S'timeframe'
p376
aS'maturities'
p377
aS'calendars'
p378
aS'civilians'
p379
aS'scheduling'
p380
aS'timetable'
p381
aS'time-frames'
p382
aS'timescale'
p383
aS'civiles'
p384
aS'timeframes'
p385
aS'timetables'
p386
aS'timeline'
p387
aS'civilian'
p388
aS'time-scale'
p389
aS'timelines'
p390
aS'time-frame'
p391
aS'timing'
p392
aS'dates'
p393
aS'calander'
p394
aS'chronology'
p395
aS'civil'
p396
aS'deadlines'
p397
aS'timescales'
p398
aS'time-table'
p399
aS'schedules'
p400
aS'hourly'
p401
aS'civile'
p402
aS'deadline'
p403
aS'calender'
p404
aS'calendaring'
p405
aS'schedule'
p406
aS'time-lines'
p407
aVcalendar
p408
asS'comb'
p409
(lp410
S'combis'
p411
aS'alveoli'
p412
aS'comb.'
p413
aVcomb
p414
asS'banana'
p415
(lp416
S'plantain'
p417
aS'pineapple'
p418
aS'bananas'
p419
aS'tomato'
p420
aS'watermelon'
p421
aS'pineapples'
p422
aS'cashew'
p423
aS'guava'
p424
aS'borer'
p425
aS'bananna'
p426
aS'mangoes'
p427
aS'weevil'
p428
aS'peach'
p429
aS'apricot'
p430
aVbanana
p431
aVbanana_tree
p432
asS'glasses'
p433
(lp434
S'goggles'
p435
aS'sunglass'
p436
aS'sunglasses'
p437
aS'lenses'
p438
aS'spectacles'
p439
aS'cups'
p440
aS'eyeglasses'
p441
aS'binoculars'
p442
aS'bifocals'
p443
aS'lentils'
p444
aS'eyewear'
p445
aS'goblets'
p446
aS'eyeglass'
p447
aS'shades'
p448
aS'nvg'
p449
aS'jars'
p450
aS'pots'
p451
aS'drinks'
p452
aS'beakers'
p453
aS'glassware'
p454
aVspectacles
p455
aVspecs
p456
aVeyeglasses
p457
aVglasses
p458
as.