(dp1
S'bring'
p2
(lp3
S'porter'
p4
aS'exert'
p5
aS'take'
p6
aS'put'
p7
aS'give'
p8
aS'making'
p9
aS'translating'
p10
aS'bringing'
p11
aS'wear'
p12
aS'afford'
p13
aS'carry'
p14
aS'achieve'
p15
aS'make'
p16
aS'get'
p17
aS'provide'
p18
aS'delivering'
p19
aS'submit'
p20
aS'doing'
p21
aS'lend'
p22
aS'bear'
p23
aS'deliver'
p24
aS'create'
p25
aS'produce'
p26
aS'render'
p27
aS'introduce'
p28
aS'them'
p29
aS'confer'
p30
aS'draw'
p31
aS'translate'
p32
aS'furnish'
p33
asS'take'
p34
(lp35
S'assume'
p36
ag9
aS'taking'
p37
ag11
ag12
aS'keep'
p38
ag14
aS'tomar'
p39
ag16
aS'takes'
p40
aS'taken'
p41
aS'adopting'
p42
ag23
aS'adopts'
p43
aS'follow'
p44
aS'seize'
p45
aS'undertake'
p46
aS'bears'
p47
aS'shoulder'
p48
aS'accept'
p49
ag31
aS'grab'
p50
aS'grabs'
p51
aS'catch'
p52
aS'inta'
p53
aS'adopt'
p54
aS'bring'
p55
as.